target datalayout = "e-m:e-p270:32:32-p271:32:32-p272:64:64-i64:64-i128:128-f80:128-n8:16:32:64-S128"
target triple = "x86_64-unknown-linux-gnu"

%"class.llvh::raw_ostream" = type <{ ptr, ptr, ptr, ptr, i32, [4 x i8] }>
%"class.llvh::raw_os_ostream" = type { %"class.llvh::raw_ostream.base", ptr }
%"class.llvh::raw_ostream.base" = type <{ ptr, ptr, ptr, ptr, i32 }>
%"class.std::fpos" = type { i64, %struct.__mbstate_t }
%struct.__mbstate_t = type { i32, %union.anon }
%union.anon = type { i32 }

$_ZN4llvh11raw_ostream5flushEv = comdat any

$_ZNKSt4fposI11__mbstate_tEcvlEv = comdat any

$_ZN4llvh11raw_ostream11changeColorENS0_6ColorsEbb = comdat any

$_ZN4llvh11raw_ostream10resetColorEv = comdat any

$_ZN4llvh11raw_ostream12reverseColorEv = comdat any

$_ZNK4llvh11raw_ostream12is_displayedEv = comdat any

$_ZNK4llvh11raw_ostream10has_colorsEv = comdat any

@_ZTVN4llvh14raw_os_ostreamE = hidden unnamed_addr constant { [13 x ptr] } { [13 x ptr] [ptr null, ptr null, ptr @_ZN4llvh14raw_os_ostreamD1Ev, ptr @_ZN4llvh14raw_os_ostreamD0Ev, ptr @_ZN4llvh11raw_ostream11changeColorENS0_6ColorsEbb, ptr @_ZN4llvh11raw_ostream10resetColorEv, ptr @_ZN4llvh11raw_ostream12reverseColorEv, ptr @_ZNK4llvh11raw_ostream12is_displayedEv, ptr @_ZNK4llvh11raw_ostream10has_colorsEv, ptr @_ZN4llvh14raw_os_ostream10write_implEPKcm, ptr @_ZNK4llvh14raw_os_ostream11current_posEv, ptr @_ZNK4llvh11raw_ostream21preferred_buffer_sizeEv, ptr @_ZN4llvh11raw_ostream6anchorEv] }, align 8

@_ZN4llvh14raw_os_ostreamD1Ev = hidden unnamed_addr alias void (ptr), ptr @_ZN4llvh14raw_os_ostreamD2Ev

; Function Attrs: mustprogress nounwind uwtable
define hidden void @_ZN4llvh14raw_os_ostreamD2Ev(ptr noundef nonnull align 8 dereferenceable(48) %this) unnamed_addr #0 align 2 {
entry:
  %this.addr = alloca ptr, align 8
  store ptr %this, ptr %this.addr, align 8
  %this1 = load ptr, ptr %this.addr, align 8
  store ptr getelementptr inbounds ({ [13 x ptr] }, ptr @_ZTVN4llvh14raw_os_ostreamE, i32 0, i32 0, i32 2), ptr %this1, align 8
  call void @_ZN4llvh11raw_ostream5flushEv(ptr noundef nonnull align 8 dereferenceable(36) %this1)
  call void @_ZN4llvh11raw_ostreamD2Ev(ptr noundef nonnull align 8 dereferenceable(36) %this1) #4
  ret void
}

; Function Attrs: mustprogress nounwind uwtable
define linkonce_odr hidden void @_ZN4llvh11raw_ostream5flushEv(ptr noundef nonnull align 8 dereferenceable(36) %this) #0 comdat align 2 {
entry:
  %this.addr = alloca ptr, align 8
  store ptr %this, ptr %this.addr, align 8
  %this1 = load ptr, ptr %this.addr, align 8
  %OutBufCur = getelementptr inbounds %"class.llvh::raw_ostream", ptr %this1, i32 0, i32 3
  %0 = load ptr, ptr %OutBufCur, align 8
  %OutBufStart = getelementptr inbounds %"class.llvh::raw_ostream", ptr %this1, i32 0, i32 1
  %1 = load ptr, ptr %OutBufStart, align 8
  %cmp = icmp ne ptr %0, %1
  br i1 %cmp, label %if.then, label %if.end

if.then:                                          ; preds = %entry
  call void @_ZN4llvh11raw_ostream14flush_nonemptyEv(ptr noundef nonnull align 8 dereferenceable(36) %this1)
  br label %if.end

if.end:                                           ; preds = %if.then, %entry
  ret void
}

; Function Attrs: nounwind
declare void @_ZN4llvh11raw_ostreamD2Ev(ptr noundef nonnull align 8 dereferenceable(36)) unnamed_addr #1

; Function Attrs: mustprogress nounwind uwtable
define hidden void @_ZN4llvh14raw_os_ostreamD0Ev(ptr noundef nonnull align 8 dereferenceable(48) %this) unnamed_addr #0 align 2 {
entry:
  %this.addr = alloca ptr, align 8
  store ptr %this, ptr %this.addr, align 8
  %this1 = load ptr, ptr %this.addr, align 8
  call void @_ZN4llvh14raw_os_ostreamD1Ev(ptr noundef nonnull align 8 dereferenceable(48) %this1) #4
  call void @_ZdlPv(ptr noundef %this1) #5
  ret void
}

; Function Attrs: nobuiltin nounwind
declare void @_ZdlPv(ptr noundef) #2

; Function Attrs: mustprogress nounwind uwtable
define hidden void @_ZN4llvh14raw_os_ostream10write_implEPKcm(ptr noundef nonnull align 8 dereferenceable(48) %this, ptr noundef %Ptr, i64 noundef %Size) unnamed_addr #0 align 2 {
entry:
  %this.addr = alloca ptr, align 8
  %Ptr.addr = alloca ptr, align 8
  %Size.addr = alloca i64, align 8
  store ptr %this, ptr %this.addr, align 8
  store ptr %Ptr, ptr %Ptr.addr, align 8
  store i64 %Size, ptr %Size.addr, align 8
  %this1 = load ptr, ptr %this.addr, align 8
  %OS = getelementptr inbounds %"class.llvh::raw_os_ostream", ptr %this1, i32 0, i32 1
  %0 = load ptr, ptr %OS, align 8
  %1 = load ptr, ptr %Ptr.addr, align 8
  %2 = load i64, ptr %Size.addr, align 8
  %call = call noundef nonnull align 8 dereferenceable(8) ptr @_ZNSo5writeEPKcl(ptr noundef nonnull align 8 dereferenceable(8) %0, ptr noundef %1, i64 noundef %2)
  ret void
}

declare noundef nonnull align 8 dereferenceable(8) ptr @_ZNSo5writeEPKcl(ptr noundef nonnull align 8 dereferenceable(8), ptr noundef, i64 noundef) #3

; Function Attrs: mustprogress nounwind uwtable
define hidden noundef i64 @_ZNK4llvh14raw_os_ostream11current_posEv(ptr noundef nonnull align 8 dereferenceable(48) %this) unnamed_addr #0 align 2 {
entry:
  %this.addr = alloca ptr, align 8
  %ref.tmp = alloca %"class.std::fpos", align 8
  store ptr %this, ptr %this.addr, align 8
  %this1 = load ptr, ptr %this.addr, align 8
  %OS = getelementptr inbounds %"class.llvh::raw_os_ostream", ptr %this1, i32 0, i32 1
  %0 = load ptr, ptr %OS, align 8
  %call = call { i64, i64 } @_ZNSo5tellpEv(ptr noundef nonnull align 8 dereferenceable(8) %0)
  %1 = getelementptr inbounds { i64, i64 }, ptr %ref.tmp, i32 0, i32 0
  %2 = extractvalue { i64, i64 } %call, 0
  store i64 %2, ptr %1, align 8
  %3 = getelementptr inbounds { i64, i64 }, ptr %ref.tmp, i32 0, i32 1
  %4 = extractvalue { i64, i64 } %call, 1
  store i64 %4, ptr %3, align 8
  %call2 = call noundef i64 @_ZNKSt4fposI11__mbstate_tEcvlEv(ptr noundef nonnull align 8 dereferenceable(16) %ref.tmp)
  ret i64 %call2
}

declare { i64, i64 } @_ZNSo5tellpEv(ptr noundef nonnull align 8 dereferenceable(8)) #3

; Function Attrs: mustprogress nounwind uwtable
define linkonce_odr hidden noundef i64 @_ZNKSt4fposI11__mbstate_tEcvlEv(ptr noundef nonnull align 8 dereferenceable(16) %this) #0 comdat align 2 {
entry:
  %this.addr = alloca ptr, align 8
  store ptr %this, ptr %this.addr, align 8
  %this1 = load ptr, ptr %this.addr, align 8
  %_M_off = getelementptr inbounds %"class.std::fpos", ptr %this1, i32 0, i32 0
  %0 = load i64, ptr %_M_off, align 8
  ret i64 %0
}

; Function Attrs: mustprogress nounwind uwtable
define linkonce_odr hidden noundef nonnull align 8 dereferenceable(36) ptr @_ZN4llvh11raw_ostream11changeColorENS0_6ColorsEbb(ptr noundef nonnull align 8 dereferenceable(36) %this, i32 noundef %Color, i1 noundef zeroext %Bold, i1 noundef zeroext %BG) unnamed_addr #0 comdat align 2 {
entry:
  %this.addr = alloca ptr, align 8
  %Color.addr = alloca i32, align 4
  %Bold.addr = alloca i8, align 1
  %BG.addr = alloca i8, align 1
  store ptr %this, ptr %this.addr, align 8
  store i32 %Color, ptr %Color.addr, align 4
  %frombool = zext i1 %Bold to i8
  store i8 %frombool, ptr %Bold.addr, align 1
  %frombool1 = zext i1 %BG to i8
  store i8 %frombool1, ptr %BG.addr, align 1
  %this2 = load ptr, ptr %this.addr, align 8
  ret ptr %this2
}

; Function Attrs: mustprogress nounwind uwtable
define linkonce_odr hidden noundef nonnull align 8 dereferenceable(36) ptr @_ZN4llvh11raw_ostream10resetColorEv(ptr noundef nonnull align 8 dereferenceable(36) %this) unnamed_addr #0 comdat align 2 {
entry:
  %this.addr = alloca ptr, align 8
  store ptr %this, ptr %this.addr, align 8
  %this1 = load ptr, ptr %this.addr, align 8
  ret ptr %this1
}

; Function Attrs: mustprogress nounwind uwtable
define linkonce_odr hidden noundef nonnull align 8 dereferenceable(36) ptr @_ZN4llvh11raw_ostream12reverseColorEv(ptr noundef nonnull align 8 dereferenceable(36) %this) unnamed_addr #0 comdat align 2 {
entry:
  %this.addr = alloca ptr, align 8
  store ptr %this, ptr %this.addr, align 8
  %this1 = load ptr, ptr %this.addr, align 8
  ret ptr %this1
}

; Function Attrs: mustprogress nounwind uwtable
define linkonce_odr hidden noundef zeroext i1 @_ZNK4llvh11raw_ostream12is_displayedEv(ptr noundef nonnull align 8 dereferenceable(36) %this) unnamed_addr #0 comdat align 2 {
entry:
  %this.addr = alloca ptr, align 8
  store ptr %this, ptr %this.addr, align 8
  ret i1 false
}

; Function Attrs: mustprogress nounwind uwtable
define linkonce_odr hidden noundef zeroext i1 @_ZNK4llvh11raw_ostream10has_colorsEv(ptr noundef nonnull align 8 dereferenceable(36) %this) unnamed_addr #0 comdat align 2 {
entry:
  %this.addr = alloca ptr, align 8
  store ptr %this, ptr %this.addr, align 8
  %this1 = load ptr, ptr %this.addr, align 8
  %vtable = load ptr, ptr %this1, align 8
  %vfn = getelementptr inbounds ptr, ptr %vtable, i64 5
  %0 = load ptr, ptr %vfn, align 8
  %call = call noundef zeroext i1 %0(ptr noundef nonnull align 8 dereferenceable(36) %this1)
  ret i1 %call
}

declare noundef i64 @_ZNK4llvh11raw_ostream21preferred_buffer_sizeEv(ptr noundef nonnull align 8 dereferenceable(36)) unnamed_addr #3

declare void @_ZN4llvh11raw_ostream6anchorEv(ptr noundef nonnull align 8 dereferenceable(36)) unnamed_addr #3

declare void @_ZN4llvh11raw_ostream14flush_nonemptyEv(ptr noundef nonnull align 8 dereferenceable(36)) #3


!llvm.module.flags = !{!0, !1, !2, !3}

!0 = !{i32 1, !"wchar_size", i32 4}
!1 = !{i32 8, !"PIC Level", i32 2}
!2 = !{i32 7, !"uwtable", i32 2}
!3 = !{i32 7, !"frame-pointer", i32 2}
